target datalayout = "e-m:e-p270:32:32-p271:32:32-p272:64:64-i64:64-i128:128-f80:128-n8:16:32:64-S128"
target triple = "x86_64-pc-linux-gnu"

@OnigEncAsciiToLowerCaseTable = external constant [0 x i8], align 1

; Function Attrs: nounwind sspstrong uwtable
define internal i32 @utf32be_mbc_case_fold(i32 noundef %0, ptr noundef %1, ptr noundef %2, ptr noundef %3, ptr noundef %4) #0 {
  %6 = alloca i32, align 4
  %7 = alloca i32, align 4
  %8 = alloca ptr, align 8
  %9 = alloca ptr, align 8
  %10 = alloca ptr, align 8
  %11 = alloca ptr, align 8
  %12 = alloca ptr, align 8
  %13 = alloca i32, align 4
  store i32 %0, ptr %7, align 4, !tbaa !16
  store ptr %1, ptr %8, align 8, !tbaa !18
  store ptr %2, ptr %9, align 8, !tbaa !13
  store ptr %3, ptr %10, align 8, !tbaa !13
  store ptr %4, ptr %11, align 8, !tbaa !14
  call void @llvm.lifetime.start.p0(i64 8, ptr %12) #3
  %14 = load ptr, ptr %8, align 8, !tbaa !18
  %15 = load ptr, ptr %14, align 8, !tbaa !13
  store ptr %15, ptr %12, align 8, !tbaa !13
  %16 = load ptr, ptr %12, align 8, !tbaa !13
  %17 = getelementptr inbounds i8, ptr %16, i64 3
  %18 = load i8, ptr %17, align 1, !tbaa !17
  %19 = zext i8 %18 to i32
  %20 = icmp slt i32 %19, 128
  br i1 %20, label %21, label %55

21:                                               ; preds = %5
  %22 = load ptr, ptr %12, align 8, !tbaa !13
  %23 = getelementptr inbounds i8, ptr %22, i64 2
  %24 = load i8, ptr %23, align 1, !tbaa !17
  %25 = zext i8 %24 to i32
  %26 = icmp eq i32 %25, 0
  br i1 %26, label %27, label %55

27:                                               ; preds = %21
  %28 = load ptr, ptr %12, align 8, !tbaa !13
  %29 = getelementptr inbounds i8, ptr %28, i64 1
  %30 = load i8, ptr %29, align 1, !tbaa !17
  %31 = zext i8 %30 to i32
  %32 = icmp eq i32 %31, 0
  br i1 %32, label %33, label %55

33:                                               ; preds = %27
  %34 = load ptr, ptr %12, align 8, !tbaa !13
  %35 = load i8, ptr %34, align 1, !tbaa !17
  %36 = zext i8 %35 to i32
  %37 = icmp eq i32 %36, 0
  br i1 %37, label %38, label %55

38:                                               ; preds = %33
  %39 = load ptr, ptr %10, align 8, !tbaa !13
  %40 = getelementptr inbounds nuw i8, ptr %39, i32 1
  store ptr %40, ptr %10, align 8, !tbaa !13
  store i8 0, ptr %39, align 1, !tbaa !17
  %41 = load ptr, ptr %10, align 8, !tbaa !13
  %42 = getelementptr inbounds nuw i8, ptr %41, i32 1
  store ptr %42, ptr %10, align 8, !tbaa !13
  store i8 0, ptr %41, align 1, !tbaa !17
  %43 = load ptr, ptr %10, align 8, !tbaa !13
  %44 = getelementptr inbounds nuw i8, ptr %43, i32 1
  store ptr %44, ptr %10, align 8, !tbaa !13
  store i8 0, ptr %43, align 1, !tbaa !17
  %45 = load ptr, ptr %12, align 8, !tbaa !13
  %46 = getelementptr inbounds i8, ptr %45, i64 3
  %47 = load i8, ptr %46, align 1, !tbaa !17
  %48 = zext i8 %47 to i64
  %49 = getelementptr inbounds nuw [0 x i8], ptr @OnigEncAsciiToLowerCaseTable, i64 0, i64 %48
  %50 = load i8, ptr %49, align 1, !tbaa !17
  %51 = load ptr, ptr %10, align 8, !tbaa !13
  store i8 %50, ptr %51, align 1, !tbaa !17
  %52 = load ptr, ptr %8, align 8, !tbaa !18
  %53 = load ptr, ptr %52, align 8, !tbaa !13
  %54 = getelementptr inbounds i8, ptr %53, i64 4
  store ptr %54, ptr %52, align 8, !tbaa !13
  store i32 4, ptr %6, align 4
  store i32 1, ptr %13, align 4
  br label %62

55:                                               ; preds = %33, %27, %21, %5
  %56 = load ptr, ptr %11, align 8, !tbaa !14
  %57 = load i32, ptr %7, align 4, !tbaa !16
  %58 = load ptr, ptr %8, align 8, !tbaa !18
  %59 = load ptr, ptr %9, align 8, !tbaa !13
  %60 = load ptr, ptr %10, align 8, !tbaa !13
  %61 = call i32 @onigenc_unicode_mbc_case_fold(ptr noundef %56, i32 noundef %57, ptr noundef %58, ptr noundef %59, ptr noundef %60)
  store i32 %61, ptr %6, align 4
  store i32 1, ptr %13, align 4
  br label %62

62:                                               ; preds = %55, %38
  call void @llvm.lifetime.end.p0(i64 8, ptr %12) #3
  %63 = load i32, ptr %6, align 4
  ret i32 %63
}