; Function Attrs: nounwind sspstrong uwtable
define internal i32 @utf32be_mbc_case_fold(i32 noundef %0, ptr noundef %1, ptr noundef %2, ptr noundef %3, ptr noundef %4) #0 {
  %6 = load ptr, ptr %1, align 8, !tbaa !9
  %7 = getelementptr inbounds nuw i8, ptr %6, i64 3
  %8 = load i8, ptr %7, align 1, !tbaa !6
  %9 = icmp sgt i8 %8, -1
  br i1 %9, label %10, label %31

10:                                               ; preds = %5
  %11 = getelementptr inbounds nuw i8, ptr %6, i64 2
  %12 = load i8, ptr %11, align 1, !tbaa !6
  %13 = icmp eq i8 %12, 0
  br i1 %13, label %14, label %31

14:                                               ; preds = %10
  %15 = getelementptr inbounds nuw i8, ptr %6, i64 1
  %16 = load i8, ptr %15, align 1, !tbaa !6
  %17 = icmp eq i8 %16, 0
  br i1 %17, label %18, label %31

18:                                               ; preds = %14
  %19 = load i8, ptr %6, align 1, !tbaa !6
  %20 = icmp eq i8 %19, 0
  br i1 %20, label %21, label %31

21:                                               ; preds = %18
  %22 = getelementptr inbounds nuw i8, ptr %3, i64 1
  store i8 0, ptr %3, align 1, !tbaa !6
  %23 = getelementptr inbounds nuw i8, ptr %3, i64 2
  store i8 0, ptr %22, align 1, !tbaa !6
  %24 = getelementptr inbounds nuw i8, ptr %3, i64 3
  store i8 0, ptr %23, align 1, !tbaa !6
  %25 = load i8, ptr %7, align 1, !tbaa !6
  %26 = zext i8 %25 to i64
  %27 = getelementptr inbounds nuw [0 x i8], ptr @OnigEncAsciiToLowerCaseTable, i64 0, i64 %26
  %28 = load i8, ptr %27, align 1, !tbaa !6
  store i8 %28, ptr %24, align 1, !tbaa !6
  %29 = load ptr, ptr %1, align 8, !tbaa !9
  %30 = getelementptr inbounds nuw i8, ptr %29, i64 4
  store ptr %30, ptr %1, align 8, !tbaa !9
  br label %33

31:                                               ; preds = %18, %14, %10, %5
  %32 = tail call i32 @onigenc_unicode_mbc_case_fold(ptr noundef %4, i32 noundef %0, ptr noundef nonnull %1, ptr noundef %2, ptr noundef %3) #5
  br label %33

33:                                               ; preds = %31, %21
  %.0 = phi i32 [ 4, %21 ], [ %32, %31 ]
  ret i32 %.0
}